; Function Attrs: mustprogress uwtable
define noundef ptr @_ZN29AdditionalToolbarWidgetAction28extractToolbarItemFromObjectEP7QObject(ptr nocapture nonnull readnone align 8 %0, ptr noundef %1) local_unnamed_addr #0 align 2 personality ptr @__gxx_personality_v0 {
  %3 = alloca %class.QMetaType, align 8
  %4 = alloca %"struct.QVariant::Private", align 8
  %5 = alloca %class.QVariant, align 8
  %6 = alloca %class.QMetaType, align 8
  %7 = alloca %class.QVariant, align 8
  %8 = alloca %class.QVariant, align 8
  %9 = alloca %class.QVariant, align 8
  %10 = icmp eq ptr %1, null
  br i1 %10, label %.thread, label %11

11:                                               ; preds = %2
  %12 = tail call ptr @__dynamic_cast(ptr nonnull %1, ptr nonnull @_ZTI7QObject, ptr nonnull @_ZTI7QWidget, i64 0) #16
  %.not = icmp eq ptr %12, null
  br i1 %.not, label %.thread, label %13

13:                                               ; preds = %11
  %14 = load ptr, ptr @_ZN29AdditionalToolbarWidgetAction12propertyNameE, align 8
  call void @_ZNK7QObject8propertyEPKc(ptr dead_on_unwind nonnull writable sret(%class.QVariant) align 8 %7, ptr noundef nonnull align 8 dereferenceable(16) %12, ptr noundef %14)
  call void @llvm.lifetime.start.p0(i64 8, ptr nonnull %6)
  %15 = getelementptr inbounds i8, ptr %7, i64 24
  %16 = load i64, ptr %15, align 8
  %17 = and i64 %16, -4
  %18 = inttoptr i64 %17 to ptr
  store ptr %18, ptr %6, align 8
  %19 = invoke noundef zeroext i1 @_ZNK9QMetaType7isValidEv(ptr noundef nonnull align 8 dereferenceable(8) %6)
          to label %20 unwind label %27

20:                                               ; preds = %13
  call void @llvm.lifetime.end.p0(i64 8, ptr nonnull %6)
  br i1 %19, label %34, label %21

21:                                               ; preds = %20
  %22 = getelementptr inbounds i8, ptr %12, i64 8
  %23 = load ptr, ptr %22, align 8
  %24 = getelementptr inbounds i8, ptr %23, i64 16
  %25 = load ptr, ptr %24, align 8
  %26 = icmp eq ptr %25, null
  br i1 %26, label %.thread18, label %29

27:                                               ; preds = %34, %13, %40, %31
  %28 = landingpad { ptr, i32 }
          cleanup
  br label %45

29:                                               ; preds = %21
  %30 = call ptr @__dynamic_cast(ptr nonnull %25, ptr nonnull @_ZTI7QObject, ptr nonnull @_ZTI7QWidget, i64 0) #16
  %.not14 = icmp eq ptr %30, null
  br i1 %.not14, label %.thread18, label %31

31:                                               ; preds = %29
  %32 = load ptr, ptr @_ZN29AdditionalToolbarWidgetAction12propertyNameE, align 8
  invoke void @_ZNK7QObject8propertyEPKc(ptr dead_on_unwind nonnull writable sret(%class.QVariant) align 8 %8, ptr noundef nonnull align 8 dereferenceable(16) %30, ptr noundef %32)
          to label %33 unwind label %27

33:                                               ; preds = %31
  call void @llvm.lifetime.start.p0(i64 32, ptr nonnull %5)
  call void @llvm.memcpy.p0.p0.i64(ptr noundef nonnull align 8 dereferenceable(32) %5, ptr noundef nonnull align 8 dereferenceable(32) %8, i64 32, i1 false)
  call void @llvm.memset.p0.i64(ptr noundef nonnull align 8 dereferenceable(24) %8, i8 0, i64 24, i1 false)
  %.sroa.2.0..sroa_idx.i.i = getelementptr inbounds i8, ptr %8, i64 24
  store i64 2, ptr %.sroa.2.0..sroa_idx.i.i, align 8
  call void @llvm.lifetime.start.p0(i64 32, ptr nonnull %4)
  call void @llvm.memcpy.p0.p0.i64(ptr noundef nonnull align 8 dereferenceable(32) %4, ptr noundef nonnull align 8 dereferenceable(32) %7, i64 32, i1 false)
  call void @llvm.memcpy.p0.p0.i64(ptr noundef nonnull align 8 dereferenceable(32) %7, ptr noundef nonnull align 8 dereferenceable(32) %5, i64 32, i1 false)
  call void @llvm.memcpy.p0.p0.i64(ptr noundef nonnull align 8 dereferenceable(32) %5, ptr noundef nonnull align 8 dereferenceable(32) %4, i64 32, i1 false)
  call void @llvm.lifetime.end.p0(i64 32, ptr nonnull %4)
  call void @_ZN8QVariantD1Ev(ptr noundef nonnull align 8 dereferenceable(32) %5) #16
  call void @llvm.lifetime.end.p0(i64 32, ptr nonnull %5)
  call void @_ZN8QVariantD1Ev(ptr noundef nonnull align 8 dereferenceable(32) %8) #16
  br label %34

34:                                               ; preds = %33, %20
  call void @llvm.lifetime.start.p0(i64 8, ptr nonnull %3)
  %35 = load i64, ptr %15, align 8
  %36 = and i64 %35, -4
  %37 = inttoptr i64 %36 to ptr
  store ptr %37, ptr %3, align 8
  %38 = invoke noundef zeroext i1 @_ZNK9QMetaType7isValidEv(ptr noundef nonnull align 8 dereferenceable(8) %3)
          to label %39 unwind label %27

39:                                               ; preds = %34
  call void @llvm.lifetime.end.p0(i64 8, ptr nonnull %3)
  br i1 %38, label %40, label %.thread18

40:                                               ; preds = %39
  invoke void @_ZN8QVariantC1ERKS_(ptr noundef nonnull align 8 dereferenceable(32) %9, ptr noundef nonnull align 8 dereferenceable(32) %7)
          to label %41 unwind label %27

41:                                               ; preds = %40
  %42 = invoke noundef ptr @_Z13qvariant_castIPvET_RK8QVariant(ptr noundef nonnull align 8 dereferenceable(32) %9)
          to label %_ZN14VariantPointerI14_ext_toolbar_tE5asPtrE8QVariant.exit unwind label %43

_ZN14VariantPointerI14_ext_toolbar_tE5asPtrE8QVariant.exit: ; preds = %41
  call void @_ZN8QVariantD1Ev(ptr noundef nonnull align 8 dereferenceable(32) %9) #16
  br label %.thread18

43:                                               ; preds = %41
  %44 = landingpad { ptr, i32 }
          cleanup
  call void @_ZN8QVariantD1Ev(ptr noundef nonnull align 8 dereferenceable(32) %9) #16
  br label %45

.thread18:                                        ; preds = %21, %39, %29, %_ZN14VariantPointerI14_ext_toolbar_tE5asPtrE8QVariant.exit
  %.0 = phi ptr [ %42, %_ZN14VariantPointerI14_ext_toolbar_tE5asPtrE8QVariant.exit ], [ null, %29 ], [ null, %39 ], [ null, %21 ]
  call void @_ZN8QVariantD1Ev(ptr noundef nonnull align 8 dereferenceable(32) %7) #16
  br label %.thread

45:                                               ; preds = %43, %27
  %.pn = phi { ptr, i32 } [ %44, %43 ], [ %28, %27 ]
  call void @_ZN8QVariantD1Ev(ptr noundef nonnull align 8 dereferenceable(32) %7) #16
  resume { ptr, i32 } %.pn

.thread:                                          ; preds = %2, %11, %.thread18
  %.1 = phi ptr [ %.0, %.thread18 ], [ null, %11 ], [ null, %2 ]
  ret ptr %.1
}